; ModuleID = '27/801.c'
source_filename = "27/801.c"
target datalayout = "e-m:e-p270:32:32-p271:32:32-p272:64:64-i64:64-f80:128-n8:16:32:64-S128"
target triple = "x86_64-pc-linux-gnu"

@.str = private unnamed_addr constant [3 x i8] c"%d\00", align 1
@.str.1 = private unnamed_addr constant [12 x i8] c"%lf%lf%lf/n\00", align 1
@.str.2 = private unnamed_addr constant [31 x i8] c"x1=%.5lf+%.5lfi;x2=%.5f-%.5fi\0A\00", align 1
@.str.3 = private unnamed_addr constant [12 x i8] c"x1=x2=%.5f\0A\00", align 1
@.str.4 = private unnamed_addr constant [17 x i8] c"x1=%.5f;x2=%.5f\0A\00", align 1

; Function Attrs: noinline nounwind uwtable
define dso_local i32 @main() #0 {
  %1 = alloca i32, align 4
  %2 = alloca i32, align 4
  %3 = alloca i32, align 4
  %4 = alloca i32, align 4
  %5 = alloca [100 x double], align 16
  %6 = alloca [100 x double], align 16
  %7 = alloca [100 x double], align 16
  %8 = alloca double, align 8
  %9 = alloca double, align 8
  %10 = alloca double, align 8
  store i32 0, i32* %1, align 4
  store double 0.000000e+00, double* %8, align 8
  store double 0.000000e+00, double* %9, align 8
  store double 0.000000e+00, double* %10, align 8
  %11 = call i32 (i8*, ...) @__isoc99_scanf(i8* getelementptr inbounds ([3 x i8], [3 x i8]* @.str, i64 0, i64 0), i32* %2)
  store i32 0, i32* %3, align 4
  br label %12

12:                                               ; preds = %27, %0
  %13 = load i32, i32* %3, align 4
  %14 = load i32, i32* %2, align 4
  %15 = icmp slt i32 %13, %14
  br i1 %15, label %16, label %30

16:                                               ; preds = %12
  %17 = load i32, i32* %3, align 4
  %18 = sext i32 %17 to i64
  %19 = getelementptr inbounds [100 x double], [100 x double]* %5, i64 0, i64 %18
  %20 = load i32, i32* %3, align 4
  %21 = sext i32 %20 to i64
  %22 = getelementptr inbounds [100 x double], [100 x double]* %6, i64 0, i64 %21
  %23 = load i32, i32* %3, align 4
  %24 = sext i32 %23 to i64
  %25 = getelementptr inbounds [100 x double], [100 x double]* %7, i64 0, i64 %24
  %26 = call i32 (i8*, ...) @__isoc99_scanf(i8* getelementptr inbounds ([12 x i8], [12 x i8]* @.str.1, i64 0, i64 0), double* %19, double* %22, double* %25)
  br label %27

27:                                               ; preds = %16
  %28 = load i32, i32* %3, align 4
  %29 = add nsw i32 %28, 1
  store i32 %29, i32* %3, align 4
  br label %12

30:                                               ; preds = %12
  store i32 0, i32* %4, align 4
  br label %31

31:                                               ; preds = %114, %30
  %32 = load i32, i32* %4, align 4
  %33 = load i32, i32* %2, align 4
  %34 = icmp slt i32 %32, %33
  br i1 %34, label %35, label %117

35:                                               ; preds = %31
  %36 = load i32, i32* %4, align 4
  %37 = sext i32 %36 to i64
  %38 = getelementptr inbounds [100 x double], [100 x double]* %6, i64 0, i64 %37
  %39 = load double, double* %38, align 8
  %40 = load i32, i32* %4, align 4
  %41 = sext i32 %40 to i64
  %42 = getelementptr inbounds [100 x double], [100 x double]* %6, i64 0, i64 %41
  %43 = load double, double* %42, align 8
  %44 = fmul double %39, %43
  %45 = load i32, i32* %4, align 4
  %46 = sext i32 %45 to i64
  %47 = getelementptr inbounds [100 x double], [100 x double]* %5, i64 0, i64 %46
  %48 = load double, double* %47, align 8
  %49 = fmul double 4.000000e+00, %48
  %50 = load i32, i32* %4, align 4
  %51 = sext i32 %50 to i64
  %52 = getelementptr inbounds [100 x double], [100 x double]* %7, i64 0, i64 %51
  %53 = load double, double* %52, align 8
  %54 = fmul double %49, %53
  %55 = fsub double %44, %54
  store double %55, double* %10, align 8
  %56 = load i32, i32* %4, align 4
  %57 = sext i32 %56 to i64
  %58 = getelementptr inbounds [100 x double], [100 x double]* %6, i64 0, i64 %57
  %59 = load double, double* %58, align 8
  %60 = fneg double %59
  %61 = load i32, i32* %4, align 4
  %62 = sext i32 %61 to i64
  %63 = getelementptr inbounds [100 x double], [100 x double]* %5, i64 0, i64 %62
  %64 = load double, double* %63, align 8
  %65 = fmul double 2.000000e+00, %64
  %66 = fdiv double %60, %65
  store double %66, double* %8, align 8
  %67 = load double, double* %8, align 8
  %68 = fcmp oeq double %67, 0.000000e+00
  br i1 %68, label %69, label %70

69:                                               ; preds = %35
  store double 0.000000e+00, double* %8, align 8
  br label %70

70:                                               ; preds = %69, %35
  %71 = load double, double* %10, align 8
  %72 = fcmp olt double %71, 0.000000e+00
  br i1 %72, label %73, label %88

73:                                               ; preds = %70
  %74 = load double, double* %10, align 8
  %75 = fneg double %74
  %76 = call double @sqrt(double %75) #3
  %77 = load i32, i32* %4, align 4
  %78 = sext i32 %77 to i64
  %79 = getelementptr inbounds [100 x double], [100 x double]* %5, i64 0, i64 %78
  %80 = load double, double* %79, align 8
  %81 = fmul double 2.000000e+00, %80
  %82 = fdiv double %76, %81
  store double %82, double* %9, align 8
  %83 = load double, double* %8, align 8
  %84 = load double, double* %9, align 8
  %85 = load double, double* %8, align 8
  %86 = load double, double* %9, align 8
  %87 = call i32 (i8*, ...) @printf(i8* getelementptr inbounds ([31 x i8], [31 x i8]* @.str.2, i64 0, i64 0), double %83, double %84, double %85, double %86)
  br label %88

88:                                               ; preds = %73, %70
  %89 = load double, double* %10, align 8
  %90 = fcmp oeq double %89, 0.000000e+00
  br i1 %90, label %91, label %94

91:                                               ; preds = %88
  %92 = load double, double* %8, align 8
  %93 = call i32 (i8*, ...) @printf(i8* getelementptr inbounds ([12 x i8], [12 x i8]* @.str.3, i64 0, i64 0), double %92)
  br label %94

94:                                               ; preds = %91, %88
  %95 = load double, double* %10, align 8
  %96 = fcmp ogt double %95, 0.000000e+00
  br i1 %96, label %97, label %113

97:                                               ; preds = %94
  %98 = load double, double* %10, align 8
  %99 = call double @sqrt(double %98) #3
  %100 = load i32, i32* %4, align 4
  %101 = sext i32 %100 to i64
  %102 = getelementptr inbounds [100 x double], [100 x double]* %5, i64 0, i64 %101
  %103 = load double, double* %102, align 8
  %104 = fmul double 2.000000e+00, %103
  %105 = fdiv double %99, %104
  store double %105, double* %9, align 8
  %106 = load double, double* %8, align 8
  %107 = load double, double* %9, align 8
  %108 = fadd double %106, %107
  %109 = load double, double* %8, align 8
  %110 = load double, double* %9, align 8
  %111 = fsub double %109, %110
  %112 = call i32 (i8*, ...) @printf(i8* getelementptr inbounds ([17 x i8], [17 x i8]* @.str.4, i64 0, i64 0), double %108, double %111)
  br label %113

113:                                              ; preds = %97, %94
  br label %114

114:                                              ; preds = %113
  %115 = load i32, i32* %4, align 4
  %116 = add nsw i32 %115, 1
  store i32 %116, i32* %4, align 4
  br label %31

117:                                              ; preds = %31
  ret i32 0
}

declare dso_local i32 @__isoc99_scanf(i8*, ...) #1

; Function Attrs: nounwind
declare dso_local double @sqrt(double) #2

declare dso_local i32 @printf(i8*, ...) #1


!llvm.module.flags = !{!0}
!llvm.ident = !{!1}

!0 = !{i32 1, !"wchar_size", i32 4}
!1 = !{!"clang version 10.0.0-4ubuntu1 "}
